; ModuleID = '56/2759.c'
source_filename = "56/2759.c"
target datalayout = "e-m:e-p270:32:32-p271:32:32-p272:64:64-i64:64-f80:128-n8:16:32:64-S128"
target triple = "x86_64-pc-linux-gnu"

@.str = private unnamed_addr constant [3 x i8] c"%c\00", align 1

; Function Attrs: noinline nounwind uwtable
define dso_local void @main() #0 {
  %1 = alloca [6 x i8], align 1
  %2 = alloca i32, align 4
  %3 = getelementptr inbounds [6 x i8], [6 x i8]* %1, i64 0, i64 0
  %4 = call i32 (i8*, ...) bitcast (i32 (...)* @gets to i32 (i8*, ...)*)(i8* %3)
  store i32 0, i32* %2, align 4
  br label %5

5:                                                ; preds = %17, %0
  %6 = load i32, i32* %2, align 4
  %7 = icmp slt i32 %6, 6
  br i1 %7, label %8, label %20

8:                                                ; preds = %5
  %9 = load i32, i32* %2, align 4
  %10 = sext i32 %9 to i64
  %11 = getelementptr inbounds [6 x i8], [6 x i8]* %1, i64 0, i64 %10
  %12 = load i8, i8* %11, align 1
  %13 = sext i8 %12 to i32
  %14 = icmp eq i32 %13, 0
  br i1 %14, label %15, label %16

15:                                               ; preds = %8
  br label %20

16:                                               ; preds = %8
  br label %17

17:                                               ; preds = %16
  %18 = load i32, i32* %2, align 4
  %19 = add nsw i32 %18, 1
  store i32 %19, i32* %2, align 4
  br label %5

20:                                               ; preds = %15, %5
  %21 = getelementptr inbounds [6 x i8], [6 x i8]* %1, i64 0, i64 0
  %22 = load i32, i32* %2, align 4
  call void @change(i8* %21, i32 %22)
  ret void
}

declare dso_local i32 @gets(...) #1

; Function Attrs: noinline nounwind uwtable
define dso_local void @change(i8* %0, i32 %1) #0 {
  %3 = alloca i8*, align 8
  %4 = alloca i32, align 4
  store i8* %0, i8** %3, align 8
  store i32 %1, i32* %4, align 4
  %5 = load i32, i32* %4, align 4
  %6 = icmp eq i32 %5, 1
  br i1 %6, label %7, label %13

7:                                                ; preds = %2
  %8 = load i8*, i8** %3, align 8
  %9 = getelementptr inbounds i8, i8* %8, i64 0
  %10 = load i8, i8* %9, align 1
  %11 = sext i8 %10 to i32
  %12 = call i32 @putchar(i32 %11)
  br label %25

13:                                               ; preds = %2
  %14 = load i8*, i8** %3, align 8
  %15 = load i32, i32* %4, align 4
  %16 = sub nsw i32 %15, 1
  %17 = sext i32 %16 to i64
  %18 = getelementptr inbounds i8, i8* %14, i64 %17
  %19 = load i8, i8* %18, align 1
  %20 = sext i8 %19 to i32
  %21 = call i32 (i8*, ...) @printf(i8* getelementptr inbounds ([3 x i8], [3 x i8]* @.str, i64 0, i64 0), i32 %20)
  %22 = load i8*, i8** %3, align 8
  %23 = load i32, i32* %4, align 4
  %24 = sub nsw i32 %23, 1
  call void @change(i8* %22, i32 %24)
  br label %25

25:                                               ; preds = %13, %7
  ret void
}

declare dso_local i32 @putchar(i32) #1

declare dso_local i32 @printf(i8*, ...) #1


!llvm.module.flags = !{!0}
!llvm.ident = !{!1}

!0 = !{i32 1, !"wchar_size", i32 4}
!1 = !{!"clang version 10.0.0-4ubuntu1 "}
